target datalayout = "e-m:e-p270:32:32-p271:32:32-p272:64:64-i64:64-i128:128-f80:128-n8:16:32:64-S128"
target triple = "x86_64-pc-linux-gnu"

%struct.free_envelope_list = type { ptr, ptr }
%struct.envelope = type { i32, ptr, ptr, ptr, ptr, i64, ptr, i32, %struct.tMPI_Atomic, i32, ptr, ptr, i32, ptr, ptr, ptr, ptr }
%struct.tMPI_Atomic = type { i32, [60 x i8] }
%struct.send_envelope_list = type { ptr, %struct.tMPI_Atomic_ptr, %struct.tMPI_Atomic_ptr, ptr, ptr, i64 }
%struct.tMPI_Atomic_ptr = type { ptr, [56 x i8] }
%struct.recv_envelope_list = type { ptr, %struct.envelope }
%struct.req_list = type { ptr, ptr }
%struct.tmpi_req_ = type { i32, ptr, ptr, ptr, i32, i32, i64, i32, ptr, ptr }
%struct.tmpi_thread = type { ptr, %struct.recv_envelope_list, ptr, %struct.free_envelope_list, %struct.tMPI_Atomic, %struct.tMPI_Event_t, %struct.req_list, ptr, ptr, ptr, ptr, i32, ptr }
%struct.tMPI_Event_t = type { %struct.tMPI_Atomic, i32 }

; Function Attrs: mustprogress nounwind uwtable
define internal void @_ZL30tMPI_Free_env_list_return_recvP18free_envelope_listP8envelope(ptr noundef %0, ptr noundef %1) #3 {
  %3 = alloca ptr, align 8
  %4 = alloca ptr, align 8
  store ptr %0, ptr %3, align 8, !tbaa !3
  store ptr %1, ptr %4, align 8, !tbaa !53
  %5 = load ptr, ptr %4, align 8, !tbaa !53
  %6 = getelementptr inbounds nuw %struct.envelope, ptr %5, i32 0, i32 15
  store ptr null, ptr %6, align 8, !tbaa !23
  %7 = load ptr, ptr %4, align 8, !tbaa !53
  %8 = getelementptr inbounds nuw %struct.envelope, ptr %7, i32 0, i32 16
  store ptr null, ptr %8, align 8, !tbaa !24
  %9 = load ptr, ptr %4, align 8, !tbaa !53
  %10 = getelementptr inbounds nuw %struct.envelope, ptr %9, i32 0, i32 10
  store ptr null, ptr %10, align 8, !tbaa !32
  %11 = load ptr, ptr %3, align 8, !tbaa !3
  %12 = getelementptr inbounds nuw %struct.free_envelope_list, ptr %11, i32 0, i32 0
  %13 = load ptr, ptr %12, align 8, !tbaa !13
  %14 = load ptr, ptr %4, align 8, !tbaa !53
  %15 = getelementptr inbounds nuw %struct.envelope, ptr %14, i32 0, i32 11
  store ptr %13, ptr %15, align 8, !tbaa !14
  %16 = load ptr, ptr %4, align 8, !tbaa !53
  %17 = load ptr, ptr %3, align 8, !tbaa !3
  %18 = getelementptr inbounds nuw %struct.free_envelope_list, ptr %17, i32 0, i32 0
  store ptr %16, ptr %18, align 8, !tbaa !13
  ret void
}

; Function Attrs: mustprogress nounwind uwtable
define internal void @_ZL25tMPI_Send_env_list_returnP8envelope(ptr noundef %0) #3 {
  %2 = alloca ptr, align 8
  %3 = alloca ptr, align 8
  store ptr %0, ptr %2, align 8, !tbaa !53
  call void @llvm.lifetime.start.p0(i64 8, ptr %3) #7
  %4 = load ptr, ptr %2, align 8, !tbaa !53
  %5 = getelementptr inbounds nuw %struct.envelope, ptr %4, i32 0, i32 16
  %6 = load ptr, ptr %5, align 8, !tbaa !24
  store ptr %6, ptr %3, align 8, !tbaa !27
  %7 = load ptr, ptr %3, align 8, !tbaa !27
  %8 = getelementptr inbounds nuw %struct.send_envelope_list, ptr %7, i32 0, i32 0
  %9 = load ptr, ptr %8, align 8, !tbaa !36
  %10 = load ptr, ptr %2, align 8, !tbaa !53
  %11 = getelementptr inbounds nuw %struct.envelope, ptr %10, i32 0, i32 11
  store ptr %9, ptr %11, align 8, !tbaa !14
  %12 = load ptr, ptr %2, align 8, !tbaa !53
  %13 = load ptr, ptr %3, align 8, !tbaa !27
  %14 = getelementptr inbounds nuw %struct.send_envelope_list, ptr %13, i32 0, i32 0
  store ptr %12, ptr %14, align 8, !tbaa !36
  call void @llvm.lifetime.end.p0(i64 8, ptr %3) #7
  ret void
}

; Function Attrs: mustprogress nounwind uwtable
define internal void @_ZL12tMPI_Set_reqP8envelopeP9tmpi_req_(ptr noundef %0, ptr noundef %1) #3 {
  %3 = alloca ptr, align 8
  %4 = alloca ptr, align 8
  store ptr %0, ptr %3, align 8, !tbaa !53
  store ptr %1, ptr %4, align 8, !tbaa !51
  %5 = load ptr, ptr %3, align 8, !tbaa !53
  %6 = getelementptr inbounds nuw %struct.envelope, ptr %5, i32 0, i32 2
  %7 = load ptr, ptr %6, align 8, !tbaa !56
  %8 = load ptr, ptr %4, align 8, !tbaa !51
  %9 = getelementptr inbounds nuw %struct.tmpi_req_, ptr %8, i32 0, i32 2
  store ptr %7, ptr %9, align 8, !tbaa !57
  %10 = load ptr, ptr %3, align 8, !tbaa !53
  %11 = getelementptr inbounds nuw %struct.envelope, ptr %10, i32 0, i32 1
  %12 = load ptr, ptr %11, align 8, !tbaa !58
  %13 = load ptr, ptr %4, align 8, !tbaa !51
  %14 = getelementptr inbounds nuw %struct.tmpi_req_, ptr %13, i32 0, i32 3
  store ptr %12, ptr %14, align 8, !tbaa !59
  %15 = load ptr, ptr %3, align 8, !tbaa !53
  %16 = getelementptr inbounds nuw %struct.envelope, ptr %15, i32 0, i32 0
  %17 = load i32, ptr %16, align 8, !tbaa !82
  %18 = load ptr, ptr %4, align 8, !tbaa !51
  %19 = getelementptr inbounds nuw %struct.tmpi_req_, ptr %18, i32 0, i32 4
  store i32 %17, ptr %19, align 8, !tbaa !60
  %20 = load ptr, ptr %3, align 8, !tbaa !53
  %21 = getelementptr inbounds nuw %struct.envelope, ptr %20, i32 0, i32 9
  %22 = load i32, ptr %21, align 4, !tbaa !93
  %23 = load ptr, ptr %4, align 8, !tbaa !51
  %24 = getelementptr inbounds nuw %struct.tmpi_req_, ptr %23, i32 0, i32 5
  store i32 %22, ptr %24, align 4, !tbaa !61
  %25 = load ptr, ptr %3, align 8, !tbaa !53
  %26 = getelementptr inbounds nuw %struct.envelope, ptr %25, i32 0, i32 12
  %27 = load i32, ptr %26, align 8, !tbaa !91
  %28 = icmp ne i32 %27, 0
  br i1 %28, label %29, label %45

29:                                               ; preds = %2
  %30 = load ptr, ptr %3, align 8, !tbaa !53
  %31 = getelementptr inbounds nuw %struct.envelope, ptr %30, i32 0, i32 8
  %32 = getelementptr inbounds nuw %struct.tMPI_Atomic, ptr %31, i32 0, i32 0
  %33 = load i32, ptr %32, align 4, !tbaa !92
  %34 = icmp sgt i32 %33, 0
  br i1 %34, label %35, label %41

35:                                               ; preds = %29
  %36 = load ptr, ptr %3, align 8, !tbaa !53
  %37 = getelementptr inbounds nuw %struct.envelope, ptr %36, i32 0, i32 5
  %38 = load i64, ptr %37, align 8, !tbaa !89
  %39 = load ptr, ptr %4, align 8, !tbaa !51
  %40 = getelementptr inbounds nuw %struct.tmpi_req_, ptr %39, i32 0, i32 6
  store i64 %38, ptr %40, align 8, !tbaa !62
  br label %44

41:                                               ; preds = %29
  %42 = load ptr, ptr %4, align 8, !tbaa !51
  %43 = getelementptr inbounds nuw %struct.tmpi_req_, ptr %42, i32 0, i32 6
  store i64 0, ptr %43, align 8, !tbaa !62
  br label %44

44:                                               ; preds = %41, %35
  br label %61

45:                                               ; preds = %2
  %46 = load ptr, ptr %3, align 8, !tbaa !53
  %47 = getelementptr inbounds nuw %struct.envelope, ptr %46, i32 0, i32 8
  %48 = getelementptr inbounds nuw %struct.tMPI_Atomic, ptr %47, i32 0, i32 0
  %49 = load i32, ptr %48, align 4, !tbaa !92
  %50 = icmp eq i32 %49, 3
  br i1 %50, label %51, label %57

51:                                               ; preds = %45
  %52 = load ptr, ptr %3, align 8, !tbaa !53
  %53 = getelementptr inbounds nuw %struct.envelope, ptr %52, i32 0, i32 5
  %54 = load i64, ptr %53, align 8, !tbaa !89
  %55 = load ptr, ptr %4, align 8, !tbaa !51
  %56 = getelementptr inbounds nuw %struct.tmpi_req_, ptr %55, i32 0, i32 6
  store i64 %54, ptr %56, align 8, !tbaa !62
  br label %60

57:                                               ; preds = %45
  %58 = load ptr, ptr %4, align 8, !tbaa !51
  %59 = getelementptr inbounds nuw %struct.tmpi_req_, ptr %58, i32 0, i32 6
  store i64 0, ptr %59, align 8, !tbaa !62
  br label %60

60:                                               ; preds = %57, %51
  br label %61

61:                                               ; preds = %60, %44
  ret void
}

; Function Attrs: mustprogress uwtable
define noundef i32 @_Z16tMPI_Test_singleP11tmpi_threadP9tmpi_req_(ptr noundef %0, ptr noundef %1) #0 {
  %3 = alloca ptr, align 8
  %4 = alloca ptr, align 8
  %5 = alloca ptr, align 8
  store ptr %0, ptr %3, align 8, !tbaa !72
  store ptr %1, ptr %4, align 8, !tbaa !51
  call void @llvm.lifetime.start.p0(i64 8, ptr %5) #7
  %6 = load ptr, ptr %4, align 8, !tbaa !51
  %7 = getelementptr inbounds nuw %struct.tmpi_req_, ptr %6, i32 0, i32 1
  %8 = load ptr, ptr %7, align 8, !tbaa !54
  store ptr %8, ptr %5, align 8, !tbaa !53
  %9 = load ptr, ptr %5, align 8, !tbaa !53
  %10 = icmp ne ptr %9, null
  br i1 %10, label %11, label %46

11:                                               ; preds = %2
  %12 = load ptr, ptr %4, align 8, !tbaa !51
  %13 = getelementptr inbounds nuw %struct.tmpi_req_, ptr %12, i32 0, i32 0
  %14 = load i32, ptr %13, align 8, !tbaa !55
  %15 = icmp ne i32 %14, 0
  br i1 %15, label %46, label %16

16:                                               ; preds = %11
  %17 = load ptr, ptr %5, align 8, !tbaa !53
  %18 = getelementptr inbounds nuw %struct.envelope, ptr %17, i32 0, i32 8
  %19 = getelementptr inbounds nuw %struct.tMPI_Atomic, ptr %18, i32 0, i32 0
  %20 = load i32, ptr %19, align 4, !tbaa !92
  %21 = icmp sge i32 %20, 3
  br i1 %21, label %22, label %45

22:                                               ; preds = %16
  %23 = load ptr, ptr %4, align 8, !tbaa !51
  %24 = getelementptr inbounds nuw %struct.tmpi_req_, ptr %23, i32 0, i32 0
  store i32 1, ptr %24, align 8, !tbaa !55
  %25 = load ptr, ptr %4, align 8, !tbaa !51
  %26 = getelementptr inbounds nuw %struct.tmpi_req_, ptr %25, i32 0, i32 1
  %27 = load ptr, ptr %26, align 8, !tbaa !54
  %28 = getelementptr inbounds nuw %struct.envelope, ptr %27, i32 0, i32 9
  %29 = load i32, ptr %28, align 4, !tbaa !93
  %30 = load ptr, ptr %4, align 8, !tbaa !51
  %31 = getelementptr inbounds nuw %struct.tmpi_req_, ptr %30, i32 0, i32 5
  store i32 %29, ptr %31, align 4, !tbaa !61
  %32 = load ptr, ptr %5, align 8, !tbaa !53
  %33 = load ptr, ptr %4, align 8, !tbaa !51
  call void @_ZL12tMPI_Set_reqP8envelopeP9tmpi_req_(ptr noundef %32, ptr noundef %33)
  %34 = load ptr, ptr %5, align 8, !tbaa !53
  %35 = getelementptr inbounds nuw %struct.envelope, ptr %34, i32 0, i32 12
  %36 = load i32, ptr %35, align 8, !tbaa !91
  %37 = icmp ne i32 %36, 0
  br i1 %37, label %38, label %40

38:                                               ; preds = %22
  %39 = load ptr, ptr %5, align 8, !tbaa !53
  call void @_ZL25tMPI_Send_env_list_returnP8envelope(ptr noundef %39)
  br label %44

40:                                               ; preds = %22
  %41 = load ptr, ptr %3, align 8, !tbaa !72
  %42 = getelementptr inbounds nuw %struct.tmpi_thread, ptr %41, i32 0, i32 3
  %43 = load ptr, ptr %5, align 8, !tbaa !53
  call void @_ZL30tMPI_Free_env_list_return_recvP18free_envelope_listP8envelope(ptr noundef %42, ptr noundef %43)
  br label %44

44:                                               ; preds = %40, %38
  br label %45

45:                                               ; preds = %44, %16
  br label %46

46:                                               ; preds = %45, %11, %2
  %47 = load ptr, ptr %4, align 8, !tbaa !51
  %48 = getelementptr inbounds nuw %struct.tmpi_req_, ptr %47, i32 0, i32 0
  %49 = load i32, ptr %48, align 8, !tbaa !55
  call void @llvm.lifetime.end.p0(i64 8, ptr %5) #7
  ret i32 %49
}

; Function Attrs: mustprogress uwtable
define noundef i32 @_Z15tMPI_Test_multiP11tmpi_threadP9tmpi_req_Pi(ptr noundef %0, ptr noundef %1, ptr noundef %2) #0 {
  %4 = alloca ptr, align 8
  %5 = alloca ptr, align 8
  %6 = alloca ptr, align 8
  %7 = alloca i32, align 4
  %8 = alloca ptr, align 8
  %9 = alloca i32, align 4
  store ptr %0, ptr %4, align 8, !tbaa !72
  store ptr %1, ptr %5, align 8, !tbaa !51
  store ptr %2, ptr %6, align 8, !tbaa !108
  call void @llvm.lifetime.start.p0(i64 4, ptr %7) #7
  store i32 1, ptr %7, align 4, !tbaa !8
  call void @llvm.lifetime.start.p0(i64 8, ptr %8) #7
  %10 = load ptr, ptr %5, align 8, !tbaa !51
  store ptr %10, ptr %8, align 8, !tbaa !51
  %11 = load ptr, ptr %6, align 8, !tbaa !108
  %12 = icmp ne ptr %11, null
  br i1 %12, label %13, label %15

13:                                               ; preds = %3
  %14 = load ptr, ptr %6, align 8, !tbaa !108
  store i32 0, ptr %14, align 4, !tbaa !8
  br label %15

15:                                               ; preds = %13, %3
  br label %16

16:                                               ; preds = %58, %15
  %17 = load ptr, ptr %8, align 8, !tbaa !51
  %18 = icmp ne ptr %17, null
  br i1 %18, label %19, label %62

19:                                               ; preds = %16
  call void @llvm.lifetime.start.p0(i64 4, ptr %9) #7
  %20 = load ptr, ptr %4, align 8, !tbaa !72
  %21 = load ptr, ptr %8, align 8, !tbaa !51
  %22 = call noundef i32 @_Z16tMPI_Test_singleP11tmpi_threadP9tmpi_req_(ptr noundef %20, ptr noundef %21)
  store i32 %22, ptr %9, align 4, !tbaa !8
  %23 = load i32, ptr %9, align 4, !tbaa !8
  %24 = icmp ne i32 %23, 0
  br i1 %24, label %26, label %25

25:                                               ; preds = %19
  store i32 0, ptr %7, align 4, !tbaa !8
  br label %58

26:                                               ; preds = %19
  %27 = load ptr, ptr %8, align 8, !tbaa !51
  %28 = getelementptr inbounds nuw %struct.tmpi_req_, ptr %27, i32 0, i32 9
  %29 = load ptr, ptr %28, align 8, !tbaa !47
  %30 = icmp ne ptr %29, null
  br i1 %30, label %31, label %39

31:                                               ; preds = %26
  %32 = load ptr, ptr %8, align 8, !tbaa !51
  %33 = getelementptr inbounds nuw %struct.tmpi_req_, ptr %32, i32 0, i32 8
  %34 = load ptr, ptr %33, align 8, !tbaa !49
  %35 = load ptr, ptr %8, align 8, !tbaa !51
  %36 = getelementptr inbounds nuw %struct.tmpi_req_, ptr %35, i32 0, i32 9
  %37 = load ptr, ptr %36, align 8, !tbaa !47
  %38 = getelementptr inbounds nuw %struct.tmpi_req_, ptr %37, i32 0, i32 8
  store ptr %34, ptr %38, align 8, !tbaa !49
  br label %39

39:                                               ; preds = %31, %26
  %40 = load ptr, ptr %8, align 8, !tbaa !51
  %41 = getelementptr inbounds nuw %struct.tmpi_req_, ptr %40, i32 0, i32 8
  %42 = load ptr, ptr %41, align 8, !tbaa !49
  %43 = icmp ne ptr %42, null
  br i1 %43, label %44, label %52

44:                                               ; preds = %39
  %45 = load ptr, ptr %8, align 8, !tbaa !51
  %46 = getelementptr inbounds nuw %struct.tmpi_req_, ptr %45, i32 0, i32 9
  %47 = load ptr, ptr %46, align 8, !tbaa !47
  %48 = load ptr, ptr %8, align 8, !tbaa !51
  %49 = getelementptr inbounds nuw %struct.tmpi_req_, ptr %48, i32 0, i32 8
  %50 = load ptr, ptr %49, align 8, !tbaa !49
  %51 = getelementptr inbounds nuw %struct.tmpi_req_, ptr %50, i32 0, i32 9
  store ptr %47, ptr %51, align 8, !tbaa !47
  br label %52

52:                                               ; preds = %44, %39
  %53 = load ptr, ptr %6, align 8, !tbaa !108
  %54 = icmp ne ptr %53, null
  br i1 %54, label %55, label %57

55:                                               ; preds = %52
  %56 = load ptr, ptr %6, align 8, !tbaa !108
  store i32 1, ptr %56, align 4, !tbaa !8
  br label %57

57:                                               ; preds = %55, %52
  br label %58

58:                                               ; preds = %57, %25
  %59 = load ptr, ptr %8, align 8, !tbaa !51
  %60 = getelementptr inbounds nuw %struct.tmpi_req_, ptr %59, i32 0, i32 8
  %61 = load ptr, ptr %60, align 8, !tbaa !49
  store ptr %61, ptr %8, align 8, !tbaa !51
  call void @llvm.lifetime.end.p0(i64 4, ptr %9) #7
  br label %16, !llvm.loop !110

62:                                               ; preds = %16
  %63 = load i32, ptr %7, align 4, !tbaa !8
  call void @llvm.lifetime.end.p0(i64 8, ptr %8) #7
  call void @llvm.lifetime.end.p0(i64 4, ptr %7) #7
  ret i32 %63
}