; Function Attrs: mustprogress nofree norecurse nosync nounwind memory(readwrite, inaccessiblemem: none) uwtable
define noundef range(i32 0, 2) i32 @_Z15tMPI_Test_multiP11tmpi_threadP9tmpi_req_Pi(ptr noundef captures(none) %0, ptr noundef %1, ptr noundef writeonly %2) local_unnamed_addr #6 {
  %.not = icmp eq ptr %2, null
  br i1 %.not, label %5, label %4

4:                                                ; preds = %3
  store i32 0, ptr %2, align 4, !tbaa !75
  br label %5

5:                                                ; preds = %4, %3
  %.not2128 = icmp eq ptr %1, null
  br i1 %.not2128, label %._crit_edge, label %.lr.ph

.lr.ph:                                           ; preds = %5
  %6 = getelementptr inbounds nuw i8, ptr %0, i64 208
  br label %7

7:                                                ; preds = %.lr.ph, %_Z16tMPI_Test_singleP11tmpi_threadP9tmpi_req_.exit.thread
  %.032 = phi i32 [ 1, %.lr.ph ], [ %.1, %_Z16tMPI_Test_singleP11tmpi_threadP9tmpi_req_.exit.thread ]
  %.01629 = phi ptr [ %1, %.lr.ph ], [ %55, %_Z16tMPI_Test_singleP11tmpi_threadP9tmpi_req_.exit.thread ]
  %8 = getelementptr inbounds nuw i8, ptr %.01629, i64 8
  %9 = load ptr, ptr %8, align 8, !tbaa !45
  %.not.i = icmp ne ptr %9, null
  %.pre18.i = load i32, ptr %.01629, align 8, !tbaa !46
  %.not14.i = icmp eq i32 %.pre18.i, 0
  %or.cond.i = select i1 %.not.i, i1 %.not14.i, i1 false
  br i1 %or.cond.i, label %10, label %_Z16tMPI_Test_singleP11tmpi_threadP9tmpi_req_.exit

10:                                               ; preds = %7
  %11 = getelementptr inbounds nuw i8, ptr %9, i64 60
  %12 = load i32, ptr %11, align 4, !tbaa !73
  %13 = icmp sgt i32 %12, 2
  br i1 %13, label %14, label %_Z16tMPI_Test_singleP11tmpi_threadP9tmpi_req_.exit.thread

14:                                               ; preds = %10
  store i32 1, ptr %.01629, align 8, !tbaa !46
  %15 = getelementptr inbounds nuw i8, ptr %9, i64 124
  %16 = load i32, ptr %15, align 4, !tbaa !74
  %17 = getelementptr inbounds nuw i8, ptr %.01629, i64 36
  %18 = getelementptr inbounds nuw i8, ptr %9, i64 16
  %19 = load ptr, ptr %18, align 8, !tbaa !47
  %20 = getelementptr inbounds nuw i8, ptr %.01629, i64 16
  store ptr %19, ptr %20, align 8, !tbaa !48
  %21 = getelementptr inbounds nuw i8, ptr %9, i64 8
  %22 = load ptr, ptr %21, align 8, !tbaa !49
  %23 = getelementptr inbounds nuw i8, ptr %.01629, i64 24
  store ptr %22, ptr %23, align 8, !tbaa !50
  %24 = load i32, ptr %9, align 8, !tbaa !62
  %25 = getelementptr inbounds nuw i8, ptr %.01629, i64 32
  store i32 %24, ptr %25, align 8, !tbaa !51
  store i32 %16, ptr %17, align 4, !tbaa !55
  %26 = getelementptr inbounds nuw i8, ptr %9, i64 144
  %27 = load i32, ptr %26, align 8, !tbaa !72
  %.not.i.i = icmp eq i32 %27, 0
  br i1 %.not.i.i, label %28, label %_Z16tMPI_Test_singleP11tmpi_threadP9tmpi_req_.exit.thread26

28:                                               ; preds = %14
  %29 = icmp eq i32 %12, 3
  br i1 %29, label %_ZL12tMPI_Set_reqP8envelopeP9tmpi_req_.exit.thread17.i, label %_ZL12tMPI_Set_reqP8envelopeP9tmpi_req_.exit.thread.i

_ZL12tMPI_Set_reqP8envelopeP9tmpi_req_.exit.thread17.i: ; preds = %28
  %30 = getelementptr inbounds nuw i8, ptr %9, i64 40
  %31 = load i64, ptr %30, align 8, !tbaa !70
  br label %_ZL12tMPI_Set_reqP8envelopeP9tmpi_req_.exit.thread.i

_Z16tMPI_Test_singleP11tmpi_threadP9tmpi_req_.exit.thread26: ; preds = %14
  %32 = getelementptr inbounds nuw i8, ptr %9, i64 40
  %33 = load i64, ptr %32, align 8, !tbaa !70
  %34 = getelementptr inbounds nuw i8, ptr %.01629, i64 40
  store i64 %33, ptr %34, align 8, !tbaa !57
  %35 = getelementptr inbounds nuw i8, ptr %9, i64 176
  %36 = load ptr, ptr %35, align 8, !tbaa !27
  %37 = load ptr, ptr %36, align 8, !tbaa !32
  %38 = getelementptr inbounds nuw i8, ptr %9, i64 136
  store ptr %37, ptr %38, align 8, !tbaa !10
  store ptr %9, ptr %36, align 8, !tbaa !32
  br label %45

_ZL12tMPI_Set_reqP8envelopeP9tmpi_req_.exit.thread.i: ; preds = %_ZL12tMPI_Set_reqP8envelopeP9tmpi_req_.exit.thread17.i, %28
  %.sink.i = phi i64 [ %31, %_ZL12tMPI_Set_reqP8envelopeP9tmpi_req_.exit.thread17.i ], [ 0, %28 ]
  %39 = getelementptr inbounds nuw i8, ptr %.01629, i64 40
  store i64 %.sink.i, ptr %39, align 8, !tbaa !57
  %40 = getelementptr inbounds nuw i8, ptr %9, i64 168
  %41 = getelementptr inbounds nuw i8, ptr %9, i64 128
  store ptr null, ptr %41, align 8, !tbaa !26
  tail call void @llvm.memset.p0.i64(ptr noundef nonnull align 8 dereferenceable(16) %40, i8 0, i64 16, i1 false)
  %42 = load ptr, ptr %6, align 8, !tbaa !9
  %43 = getelementptr inbounds nuw i8, ptr %9, i64 136
  store ptr %42, ptr %43, align 8, !tbaa !10
  store ptr %9, ptr %6, align 8, !tbaa !9
  %.pre.i = load i32, ptr %.01629, align 8, !tbaa !46
  br label %_Z16tMPI_Test_singleP11tmpi_threadP9tmpi_req_.exit

_Z16tMPI_Test_singleP11tmpi_threadP9tmpi_req_.exit: ; preds = %7, %_ZL12tMPI_Set_reqP8envelopeP9tmpi_req_.exit.thread.i
  %44 = phi i32 [ %.pre.i, %_ZL12tMPI_Set_reqP8envelopeP9tmpi_req_.exit.thread.i ], [ %.pre18.i, %7 ]
  %.not22 = icmp eq i32 %44, 0
  br i1 %.not22, label %_Z16tMPI_Test_singleP11tmpi_threadP9tmpi_req_.exit.thread, label %45

45:                                               ; preds = %_Z16tMPI_Test_singleP11tmpi_threadP9tmpi_req_.exit.thread26, %_Z16tMPI_Test_singleP11tmpi_threadP9tmpi_req_.exit
  %46 = getelementptr inbounds nuw i8, ptr %.01629, i64 64
  %47 = load ptr, ptr %46, align 8, !tbaa !40
  %.not23 = icmp eq ptr %47, null
  %.phi.trans.insert = getelementptr inbounds nuw i8, ptr %.01629, i64 56
  %.pre = load ptr, ptr %.phi.trans.insert, align 8, !tbaa !42
  br i1 %.not23, label %._crit_edge33, label %48

48:                                               ; preds = %45
  %49 = getelementptr inbounds nuw i8, ptr %47, i64 56
  store ptr %.pre, ptr %49, align 8, !tbaa !42
  br label %._crit_edge33

._crit_edge33:                                    ; preds = %45, %48
  %.not24 = icmp eq ptr %.pre, null
  br i1 %.not24, label %52, label %50

50:                                               ; preds = %._crit_edge33
  %51 = getelementptr inbounds nuw i8, ptr %.pre, i64 64
  store ptr %47, ptr %51, align 8, !tbaa !40
  br label %52

52:                                               ; preds = %50, %._crit_edge33
  br i1 %.not, label %_Z16tMPI_Test_singleP11tmpi_threadP9tmpi_req_.exit.thread, label %53

53:                                               ; preds = %52
  store i32 1, ptr %2, align 4, !tbaa !75
  br label %_Z16tMPI_Test_singleP11tmpi_threadP9tmpi_req_.exit.thread

_Z16tMPI_Test_singleP11tmpi_threadP9tmpi_req_.exit.thread: ; preds = %10, %_Z16tMPI_Test_singleP11tmpi_threadP9tmpi_req_.exit, %52, %53
  %.1 = phi i32 [ %.032, %53 ], [ %.032, %52 ], [ 0, %_Z16tMPI_Test_singleP11tmpi_threadP9tmpi_req_.exit ], [ 0, %10 ]
  %54 = getelementptr inbounds nuw i8, ptr %.01629, i64 56
  %55 = load ptr, ptr %54, align 8, !tbaa !42
  %.not21 = icmp eq ptr %55, null
  br i1 %.not21, label %._crit_edge, label %7, !llvm.loop !94

._crit_edge:                                      ; preds = %_Z16tMPI_Test_singleP11tmpi_threadP9tmpi_req_.exit.thread, %5
  %.0.lcssa = phi i32 [ 1, %5 ], [ %.1, %_Z16tMPI_Test_singleP11tmpi_threadP9tmpi_req_.exit.thread ]
  ret i32 %.0.lcssa
}